target datalayout = "e-m:e-p270:32:32-p271:32:32-p272:64:64-i64:64-i128:128-f80:128-n8:16:32:64-S128"
target triple = "x86_64-pc-linux-gnu"

%"class.icu_77::Normalizer" = type <{ %"class.icu_77::UObject", ptr, ptr, i32, i32, ptr, i32, i32, %"class.icu_77::UnicodeString", i32, [4 x i8] }>
%"class.icu_77::UObject" = type { ptr }
%"class.icu_77::UnicodeString" = type { %"class.icu_77::Replaceable", %"union.icu_77::UnicodeString::StackBufferOrFields" }
%"class.icu_77::Replaceable" = type { %"class.icu_77::UObject" }
%"union.icu_77::UnicodeString::StackBufferOrFields" = type { %struct.anon.0, [32 x i8] }
%struct.anon.0 = type { i16, i32, i32, ptr }
%"class.icu_77::ConstChar16Ptr" = type { ptr }

; Function Attrs: inlinehint mustprogress nounwind uwtable
define linkonce_odr void @_ZN6icu_7713UnicodeString13setZeroLengthEv(ptr noundef nonnull align 8 dereferenceable(64) %0) #3 comdat align 2 {
  %2 = alloca ptr, align 8
  store ptr %0, ptr %2, align 8, !tbaa !8
  %3 = load ptr, ptr %2, align 8
  %4 = getelementptr inbounds nuw %"class.icu_77::UnicodeString", ptr %3, i32 0, i32 1
  %5 = getelementptr inbounds nuw %struct.anon.0, ptr %4, i32 0, i32 0
  %6 = load i16, ptr %5, align 8, !tbaa !32
  %7 = sext i16 %6 to i32
  %8 = and i32 %7, 31
  %9 = trunc i32 %8 to i16
  store i16 %9, ptr %5, align 8, !tbaa !32
  ret void
}

; Function Attrs: inlinehint mustprogress nounwind uwtable
define linkonce_odr void @_ZN6icu_7713UnicodeString10setToEmptyEv(ptr noundef nonnull align 8 dereferenceable(64) %0) #3 comdat align 2 {
  %2 = alloca ptr, align 8
  store ptr %0, ptr %2, align 8, !tbaa !8
  %3 = load ptr, ptr %2, align 8
  %4 = getelementptr inbounds nuw %"class.icu_77::UnicodeString", ptr %3, i32 0, i32 1
  %5 = getelementptr inbounds nuw %struct.anon.0, ptr %4, i32 0, i32 0
  store i16 2, ptr %5, align 8, !tbaa !32
  ret void
}

; Function Attrs: inlinehint mustprogress nounwind uwtable
define linkonce_odr noundef signext i8 @_ZNK6icu_7713UnicodeString7isBogusEv(ptr noundef nonnull align 8 dereferenceable(64) %0) #3 comdat align 2 {
  %2 = alloca ptr, align 8
  store ptr %0, ptr %2, align 8, !tbaa !8
  %3 = load ptr, ptr %2, align 8
  %4 = getelementptr inbounds nuw %"class.icu_77::UnicodeString", ptr %3, i32 0, i32 1
  %5 = getelementptr inbounds nuw %struct.anon.0, ptr %4, i32 0, i32 0
  %6 = load i16, ptr %5, align 8, !tbaa !32
  %7 = sext i16 %6 to i32
  %8 = and i32 %7, 1
  %9 = trunc i32 %8 to i8
  ret i8 %9
}

; Function Attrs: inlinehint mustprogress uwtable
define linkonce_odr noundef nonnull align 8 dereferenceable(64) ptr @_ZN6icu_7713UnicodeString6removeEv(ptr noundef nonnull align 8 dereferenceable(64) %0) #6 comdat align 2 {
  %2 = alloca ptr, align 8
  store ptr %0, ptr %2, align 8, !tbaa !8
  %3 = load ptr, ptr %2, align 8
  %4 = call noundef signext i8 @_ZNK6icu_7713UnicodeString7isBogusEv(ptr noundef nonnull align 8 dereferenceable(64) %3)
  %5 = icmp ne i8 %4, 0
  br i1 %5, label %6, label %7

6:                                                ; preds = %1
  call void @_ZN6icu_7713UnicodeString10setToEmptyEv(ptr noundef nonnull align 8 dereferenceable(64) %3)
  br label %8

7:                                                ; preds = %1
  call void @_ZN6icu_7713UnicodeString13setZeroLengthEv(ptr noundef nonnull align 8 dereferenceable(64) %3)
  br label %8

8:                                                ; preds = %7, %6
  ret ptr %3
}

; Function Attrs: mustprogress uwtable
define void @_ZN6icu_7710Normalizer11clearBufferEv(ptr noundef nonnull align 8 dereferenceable(116) %0) #1 align 2 {
  %2 = alloca ptr, align 8
  store ptr %0, ptr %2, align 8, !tbaa !3
  %3 = load ptr, ptr %2, align 8
  %4 = getelementptr inbounds nuw %"class.icu_77::Normalizer", ptr %3, i32 0, i32 8
  %5 = call noundef nonnull align 8 dereferenceable(64) ptr @_ZN6icu_7713UnicodeString6removeEv(ptr noundef nonnull align 8 dereferenceable(64) %4)
  %6 = getelementptr inbounds nuw %"class.icu_77::Normalizer", ptr %3, i32 0, i32 9
  store i32 0, ptr %6, align 8, !tbaa !29
  ret void
}

; Function Attrs: inlinehint mustprogress uwtable
define linkonce_odr noundef i32 @_ZN6icu_7717CharacterIterator10setToStartEv(ptr noundef nonnull align 8 dereferenceable(24) %0) #6 comdat align 2 {
  %2 = alloca ptr, align 8
  store ptr %0, ptr %2, align 8, !tbaa !44
  %3 = load ptr, ptr %2, align 8
  %4 = load ptr, ptr %3, align 8, !tbaa !12
  %5 = getelementptr inbounds ptr, ptr %4, i64 24
  %6 = load ptr, ptr %5, align 8
  %7 = call noundef i32 %6(ptr noundef nonnull align 8 dereferenceable(24) %3, i32 noundef 0, i32 noundef 0)
  ret i32 %7
}

; Function Attrs: mustprogress uwtable
define void @_ZN6icu_7710Normalizer5resetEv(ptr noundef nonnull align 8 dereferenceable(116) %0) #1 align 2 {
  %2 = alloca ptr, align 8
  store ptr %0, ptr %2, align 8, !tbaa !3
  %3 = load ptr, ptr %2, align 8
  %4 = getelementptr inbounds nuw %"class.icu_77::Normalizer", ptr %3, i32 0, i32 5
  %5 = load ptr, ptr %4, align 8, !tbaa !26
  %6 = call noundef i32 @_ZN6icu_7717CharacterIterator10setToStartEv(ptr noundef nonnull align 8 dereferenceable(24) %5)
  %7 = getelementptr inbounds nuw %"class.icu_77::Normalizer", ptr %3, i32 0, i32 7
  store i32 %6, ptr %7, align 4, !tbaa !28
  %8 = getelementptr inbounds nuw %"class.icu_77::Normalizer", ptr %3, i32 0, i32 6
  store i32 %6, ptr %8, align 8, !tbaa !27
  call void @_ZN6icu_7710Normalizer11clearBufferEv(ptr noundef nonnull align 8 dereferenceable(116) %3)
  ret void
}

; Function Attrs: inlinehint mustprogress nounwind uwtable
define linkonce_odr void @_ZN6icu_7714ConstChar16PtrD2Ev(ptr noundef nonnull align 8 dereferenceable(8) %0) unnamed_addr #3 comdat align 2 {
  %2 = alloca ptr, align 8
  store ptr %0, ptr %2, align 8, !tbaa !35
  %3 = load ptr, ptr %2, align 8
  %4 = getelementptr inbounds nuw %"class.icu_77::ConstChar16Ptr", ptr %3, i32 0, i32 0
  %5 = load ptr, ptr %4, align 8, !tbaa !41
  call void asm sideeffect "", "rm,~{memory},~{dirflag},~{fpsr},~{flags}"(ptr %5) #9, !srcloc !43
  ret void
}

; Function Attrs: inlinehint mustprogress nounwind uwtable
define internal noundef signext i8 @_ZL9U_FAILURE10UErrorCode(i32 noundef %0) #3 {
  %2 = alloca i32, align 4
  store i32 %0, ptr %2, align 4, !tbaa !33
  %3 = load i32, ptr %2, align 4, !tbaa !33
  %4 = icmp sgt i32 %3, 0
  %5 = zext i1 %4 to i8
  ret i8 %5
}

; Function Attrs: mustprogress uwtable
define void @_ZN6icu_7710Normalizer7setTextENS_14ConstChar16PtrEiR10UErrorCode(ptr noundef nonnull align 8 dereferenceable(116) %0, ptr noundef %1, i32 noundef %2, ptr noundef nonnull align 4 dereferenceable(4) %3) #1 align 2 personality ptr @__gxx_personality_v0 {
  %5 = alloca ptr, align 8
  %6 = alloca ptr, align 8
  %7 = alloca i32, align 4
  %8 = alloca ptr, align 8
  %9 = alloca ptr, align 8
  %10 = alloca ptr, align 8
  %11 = alloca i1, align 1
  %12 = alloca %"class.icu_77::ConstChar16Ptr", align 8
  %13 = alloca i1, align 1
  %14 = alloca ptr, align 8
  %15 = alloca i32, align 4
  %16 = alloca i32, align 4
  store ptr %0, ptr %5, align 8, !tbaa !3
  store ptr %1, ptr %6, align 8, !tbaa !35
  store i32 %2, ptr %7, align 4, !tbaa !37
  store ptr %3, ptr %8, align 8, !tbaa !49
  %17 = load ptr, ptr %5, align 8
  %18 = load ptr, ptr %8, align 8, !tbaa !49
  %19 = load i32, ptr %18, align 4, !tbaa !33
  %20 = call noundef signext i8 @_ZL9U_FAILURE10UErrorCode(i32 noundef %19)
  %21 = icmp ne i8 %20, 0
  br i1 %21, label %22, label %23

22:                                               ; preds = %4
  br label %62

23:                                               ; preds = %4
  call void @llvm.lifetime.start.p0(i64 8, ptr %9) #9
  %24 = call noundef ptr @_ZN6icu_777UMemorynwEm(i64 noundef 32) #9
  %25 = icmp eq ptr %24, null
  store i1 false, ptr %11, align 1
  store i1 false, ptr %13, align 1
  br i1 %25, label %29, label %26

26:                                               ; preds = %23
  store ptr %24, ptr %10, align 8
  store i1 true, ptr %11, align 1
  call void @llvm.memcpy.p0.p0.i64(ptr align 8 %12, ptr align 8 %1, i64 8, i1 false), !tbaa.struct !38
  store i1 true, ptr %13, align 1
  %27 = load i32, ptr %7, align 4, !tbaa !37
  invoke void @_ZN6icu_7722UCharCharacterIteratorC1ENS_14ConstChar16PtrEi(ptr noundef nonnull align 8 dereferenceable(32) %24, ptr noundef %12, i32 noundef %27)
          to label %28 unwind label %38

28:                                               ; preds = %26
  store i1 false, ptr %11, align 1
  br label %29

29:                                               ; preds = %28, %23
  %30 = phi ptr [ %24, %28 ], [ null, %23 ]
  %31 = load i1, ptr %13, align 1
  br i1 %31, label %32, label %33

32:                                               ; preds = %29
  call void @_ZN6icu_7714ConstChar16PtrD2Ev(ptr noundef nonnull align 8 dereferenceable(8) %12) #9
  br label %33

33:                                               ; preds = %32, %29
  store ptr %30, ptr %9, align 8, !tbaa !44
  %34 = load ptr, ptr %9, align 8, !tbaa !44
  %35 = icmp eq ptr %34, null
  br i1 %35, label %36, label %49

36:                                               ; preds = %33
  %37 = load ptr, ptr %8, align 8, !tbaa !49
  store i32 7, ptr %37, align 4, !tbaa !33
  store i32 1, ptr %16, align 4
  br label %60

38:                                               ; preds = %26
  %39 = landingpad { ptr, i32 }
          cleanup
  %40 = extractvalue { ptr, i32 } %39, 0
  store ptr %40, ptr %14, align 8
  %41 = extractvalue { ptr, i32 } %39, 1
  store i32 %41, ptr %15, align 4
  %42 = load i1, ptr %13, align 1
  br i1 %42, label %43, label %44

43:                                               ; preds = %38
  call void @_ZN6icu_7714ConstChar16PtrD2Ev(ptr noundef nonnull align 8 dereferenceable(8) %12) #9
  br label %44

44:                                               ; preds = %43, %38
  %45 = load i1, ptr %11, align 1
  br i1 %45, label %46, label %48

46:                                               ; preds = %44
  %47 = load ptr, ptr %10, align 8
  call void @_ZN6icu_777UMemorydlEPv(ptr noundef %47) #9
  br label %48

48:                                               ; preds = %46, %44
  call void @llvm.lifetime.end.p0(i64 8, ptr %9) #9
  br label %63

49:                                               ; preds = %33
  %50 = getelementptr inbounds nuw %"class.icu_77::Normalizer", ptr %17, i32 0, i32 5
  %51 = load ptr, ptr %50, align 8, !tbaa !26
  %52 = icmp eq ptr %51, null
  br i1 %52, label %57, label %53

53:                                               ; preds = %49
  %54 = load ptr, ptr %51, align 8, !tbaa !12
  %55 = getelementptr inbounds ptr, ptr %54, i64 1
  %56 = load ptr, ptr %55, align 8
  call void %56(ptr noundef nonnull align 8 dereferenceable(24) %51) #9
  br label %57

57:                                               ; preds = %53, %49
  %58 = load ptr, ptr %9, align 8, !tbaa !44
  %59 = getelementptr inbounds nuw %"class.icu_77::Normalizer", ptr %17, i32 0, i32 5
  store ptr %58, ptr %59, align 8, !tbaa !26
  call void @_ZN6icu_7710Normalizer5resetEv(ptr noundef nonnull align 8 dereferenceable(116) %17)
  store i32 0, ptr %16, align 4
  br label %60

60:                                               ; preds = %57, %36
  call void @llvm.lifetime.end.p0(i64 8, ptr %9) #9
  %61 = load i32, ptr %16, align 4
  switch i32 %61, label %68 [
    i32 0, label %62
    i32 1, label %62
  ]

62:                                               ; preds = %22, %60, %60
  ret void

63:                                               ; preds = %48
  %64 = load ptr, ptr %14, align 8
  %65 = load i32, ptr %15, align 4
  %66 = insertvalue { ptr, i32 } poison, ptr %64, 0
  %67 = insertvalue { ptr, i32 } %66, i32 %65, 1
  resume { ptr, i32 } %67

68:                                               ; preds = %60
  unreachable
}