; Function Attrs: mustprogress uwtable
define void @_ZN6icu_7710Normalizer7setTextENS_14ConstChar16PtrEiR10UErrorCode(ptr noundef nonnull align 8 captures(none) dereferenceable(116) %0, ptr noundef readonly captures(none) %1, i32 noundef %2, ptr noundef nonnull align 4 captures(none) dereferenceable(4) %3) local_unnamed_addr #1 align 2 personality ptr @__gxx_personality_v0 {
  %5 = alloca %"class.icu_77::ConstChar16Ptr", align 8
  %6 = load i32, ptr %3, align 4, !tbaa !24
  %7 = icmp slt i32 %6, 1
  br i1 %7, label %8, label %37

8:                                                ; preds = %4
  %9 = tail call noundef ptr @_ZN6icu_777UMemorynwEm(i64 noundef 32) #10
  %.not14 = icmp eq ptr %9, null
  br i1 %.not14, label %12, label %10

10:                                               ; preds = %8
  %11 = load i64, ptr %1, align 8, !tbaa !31
  store i64 %11, ptr %5, align 8, !tbaa !31
  invoke void @_ZN6icu_7722UCharCharacterIteratorC1ENS_14ConstChar16PtrEi(ptr noundef nonnull align 8 dereferenceable(32) %9, ptr noundef nonnull %5, i32 noundef %2)
          to label %16 unwind label %13

12:                                               ; preds = %8
  store i32 7, ptr %3, align 4, !tbaa !24
  br label %37

13:                                               ; preds = %10
  %14 = landingpad { ptr, i32 }
          cleanup
  %15 = load ptr, ptr %5, align 8, !tbaa !33
  call void asm sideeffect "", "rm,~{memory},~{dirflag},~{fpsr},~{flags}"(ptr %15) #10, !srcloc !35
  call void @_ZN6icu_777UMemorydlEPv(ptr noundef nonnull %9) #10
  resume { ptr, i32 } %14

16:                                               ; preds = %10
  %17 = load ptr, ptr %5, align 8, !tbaa !33
  call void asm sideeffect "", "rm,~{memory},~{dirflag},~{fpsr},~{flags}"(ptr %17) #10, !srcloc !35
  %18 = getelementptr inbounds nuw i8, ptr %0, i64 32
  %19 = load ptr, ptr %18, align 8, !tbaa !19
  %20 = icmp eq ptr %19, null
  br i1 %20, label %25, label %21

21:                                               ; preds = %16
  %22 = load ptr, ptr %19, align 8, !tbaa !3
  %23 = getelementptr inbounds nuw i8, ptr %22, i64 8
  %24 = load ptr, ptr %23, align 8
  call void %24(ptr noundef nonnull align 8 dereferenceable(24) %19) #10
  br label %25

25:                                               ; preds = %21, %16
  store ptr %9, ptr %18, align 8, !tbaa !19
  %26 = load ptr, ptr %9, align 8, !tbaa !3
  %27 = getelementptr inbounds nuw i8, ptr %26, i64 192
  %28 = load ptr, ptr %27, align 8
  %29 = call noundef i32 %28(ptr noundef nonnull align 8 dereferenceable(24) %9, i32 noundef 0, i32 noundef 0)
  %30 = getelementptr inbounds nuw i8, ptr %0, i64 44
  store i32 %29, ptr %30, align 4, !tbaa !21
  %31 = getelementptr inbounds nuw i8, ptr %0, i64 40
  store i32 %29, ptr %31, align 8, !tbaa !20
  %32 = getelementptr inbounds nuw i8, ptr %0, i64 56
  %33 = load i16, ptr %32, align 8, !tbaa !22
  %34 = and i16 %33, 1
  %.not.i.i.i = icmp eq i16 %34, 0
  %35 = and i16 %33, 30
  %storemerge.i.i.i = select i1 %.not.i.i.i, i16 %35, i16 2
  store i16 %storemerge.i.i.i, ptr %32, align 8, !tbaa !22
  %36 = getelementptr inbounds nuw i8, ptr %0, i64 112
  store i32 0, ptr %36, align 8, !tbaa !23
  br label %37

37:                                               ; preds = %12, %25, %4
  ret void
}